target datalayout = "e-m:e-p270:32:32-p271:32:32-p272:64:64-i64:64-i128:128-f80:128-n8:16:32:64-S128"
target triple = "x86_64-pc-linux-gnu"

%struct.archive_match = type { %struct.archive, i32, i32, %struct.match_list, %struct.match_list, i64, i32, i64, i64, i32, i64, i64, i32, i64, i64, i32, i64, i64, %struct.archive_rb_tree, %struct.entry_list, %struct.id_array, %struct.id_array, %struct.match_list, %struct.match_list }
%struct.archive = type { i32, i32, ptr, i32, ptr, i32, i32, ptr, %struct.archive_string, ptr, i32, i32, ptr, ptr, i64, i64, i64, i8, i64 }
%struct.archive_string = type { ptr, i64, i64 }
%struct.archive_rb_tree = type { ptr, ptr }
%struct.entry_list = type { ptr, ptr, i32 }
%struct.id_array = type { i64, i64, ptr }
%struct.match_list = type { ptr, ptr, i32, i32, ptr, i32 }

@.str.1 = private unnamed_addr constant [26 x i8] c"archive_match_excluded_ae\00", align 1
@.str.2 = private unnamed_addr constant [14 x i8] c"entry is NULL\00", align 1

; Function Attrs: nounwind uwtable
define dso_local i32 @archive_match_excluded(ptr noundef %0, ptr noundef %1) #0 {
  %3 = alloca i32, align 4
  %4 = alloca ptr, align 8
  %5 = alloca ptr, align 8
  %6 = alloca ptr, align 8
  %7 = alloca i32, align 4
  %8 = alloca i32, align 4
  %9 = alloca i32, align 4
  store ptr %0, ptr %4, align 8, !tbaa !41
  store ptr %1, ptr %5, align 8, !tbaa !59
  call void @llvm.lifetime.start.p0(i64 8, ptr %6) #9
  call void @llvm.lifetime.start.p0(i64 4, ptr %7) #9
  br label %10

10:                                               ; preds = %2
  call void @llvm.lifetime.start.p0(i64 4, ptr %8) #9
  %11 = load ptr, ptr %4, align 8, !tbaa !41
  %12 = call i32 @__archive_check_magic(ptr noundef %11, i32 noundef 212668873, i32 noundef 1, ptr noundef @.str.1)
  store i32 %12, ptr %8, align 4, !tbaa !43
  %13 = load i32, ptr %8, align 4, !tbaa !43
  %14 = icmp eq i32 %13, -30
  br i1 %14, label %15, label %16

15:                                               ; preds = %10
  store i32 -30, ptr %3, align 4
  store i32 1, ptr %9, align 4
  br label %17

16:                                               ; preds = %10
  store i32 0, ptr %9, align 4
  br label %17

17:                                               ; preds = %16, %15
  call void @llvm.lifetime.end.p0(i64 4, ptr %8) #9
  %18 = load i32, ptr %9, align 4
  switch i32 %18, label %71 [
    i32 0, label %19
  ]

19:                                               ; preds = %17
  br label %20

20:                                               ; preds = %19
  br label %21

21:                                               ; preds = %20
  %22 = load ptr, ptr %4, align 8, !tbaa !41
  store ptr %22, ptr %6, align 8, !tbaa !4
  %23 = load ptr, ptr %5, align 8, !tbaa !59
  %24 = icmp eq ptr %23, null
  br i1 %24, label %25, label %28

25:                                               ; preds = %21
  %26 = load ptr, ptr %6, align 8, !tbaa !4
  %27 = getelementptr inbounds nuw %struct.archive_match, ptr %26, i32 0, i32 0
  call void (ptr, i32, ptr, ...) @archive_set_error(ptr noundef %27, i32 noundef 22, ptr noundef @.str.2)
  store i32 -25, ptr %3, align 4
  store i32 1, ptr %9, align 4
  br label %71

28:                                               ; preds = %21
  store i32 0, ptr %7, align 4, !tbaa !43
  %29 = load ptr, ptr %6, align 8, !tbaa !4
  %30 = getelementptr inbounds nuw %struct.archive_match, ptr %29, i32 0, i32 1
  %31 = load i32, ptr %30, align 8, !tbaa !61
  %32 = and i32 %31, 1
  %33 = icmp ne i32 %32, 0
  br i1 %33, label %34, label %44

34:                                               ; preds = %28
  %35 = load ptr, ptr %6, align 8, !tbaa !4
  %36 = load ptr, ptr %5, align 8, !tbaa !59
  %37 = call ptr @archive_entry_pathname(ptr noundef %36)
  %38 = call i32 @path_excluded(ptr noundef %35, i32 noundef 1, ptr noundef %37)
  store i32 %38, ptr %7, align 4, !tbaa !43
  %39 = load i32, ptr %7, align 4, !tbaa !43
  %40 = icmp ne i32 %39, 0
  br i1 %40, label %41, label %43

41:                                               ; preds = %34
  %42 = load i32, ptr %7, align 4, !tbaa !43
  store i32 %42, ptr %3, align 4
  store i32 1, ptr %9, align 4
  br label %71

43:                                               ; preds = %34
  br label %44

44:                                               ; preds = %43, %28
  %45 = load ptr, ptr %6, align 8, !tbaa !4
  %46 = getelementptr inbounds nuw %struct.archive_match, ptr %45, i32 0, i32 1
  %47 = load i32, ptr %46, align 8, !tbaa !61
  %48 = and i32 %47, 2
  %49 = icmp ne i32 %48, 0
  br i1 %49, label %50, label %59

50:                                               ; preds = %44
  %51 = load ptr, ptr %6, align 8, !tbaa !4
  %52 = load ptr, ptr %5, align 8, !tbaa !59
  %53 = call i32 @time_excluded(ptr noundef %51, ptr noundef %52)
  store i32 %53, ptr %7, align 4, !tbaa !43
  %54 = load i32, ptr %7, align 4, !tbaa !43
  %55 = icmp ne i32 %54, 0
  br i1 %55, label %56, label %58

56:                                               ; preds = %50
  %57 = load i32, ptr %7, align 4, !tbaa !43
  store i32 %57, ptr %3, align 4
  store i32 1, ptr %9, align 4
  br label %71

58:                                               ; preds = %50
  br label %59

59:                                               ; preds = %58, %44
  %60 = load ptr, ptr %6, align 8, !tbaa !4
  %61 = getelementptr inbounds nuw %struct.archive_match, ptr %60, i32 0, i32 1
  %62 = load i32, ptr %61, align 8, !tbaa !61
  %63 = and i32 %62, 4
  %64 = icmp ne i32 %63, 0
  br i1 %64, label %65, label %69

65:                                               ; preds = %59
  %66 = load ptr, ptr %6, align 8, !tbaa !4
  %67 = load ptr, ptr %5, align 8, !tbaa !59
  %68 = call i32 @owner_excluded(ptr noundef %66, ptr noundef %67)
  store i32 %68, ptr %7, align 4, !tbaa !43
  br label %69

69:                                               ; preds = %65, %59
  %70 = load i32, ptr %7, align 4, !tbaa !43
  store i32 %70, ptr %3, align 4
  store i32 1, ptr %9, align 4
  br label %71

71:                                               ; preds = %69, %56, %41, %25, %17
  call void @llvm.lifetime.end.p0(i64 4, ptr %7) #9
  call void @llvm.lifetime.end.p0(i64 8, ptr %6) #9
  %72 = load i32, ptr %3, align 4
  ret i32 %72
}