; Function Attrs: nounwind uwtable
define dso_local i32 @archive_match_excluded(ptr noundef %0, ptr noundef %1) local_unnamed_addr #0 {
  %3 = tail call i32 @__archive_check_magic(ptr noundef %0, i32 noundef 212668873, i32 noundef 1, ptr noundef nonnull @.str.1) #14
  %.not = icmp eq i32 %3, -30
  br i1 %.not, label %24, label %4

4:                                                ; preds = %2
  %5 = icmp eq ptr %1, null
  br i1 %5, label %6, label %7

6:                                                ; preds = %4
  tail call void (ptr, i32, ptr, ...) @archive_set_error(ptr noundef %0, i32 noundef 22, ptr noundef nonnull @.str.2) #14
  br label %24

7:                                                ; preds = %4
  %8 = getelementptr inbounds nuw i8, ptr %0, i64 144
  %9 = load i32, ptr %8, align 8, !tbaa !48
  %10 = and i32 %9, 1
  %.not28 = icmp eq i32 %10, 0
  br i1 %.not28, label %14, label %11

11:                                               ; preds = %7
  %12 = tail call ptr @archive_entry_pathname(ptr noundef nonnull %1) #14
  %13 = tail call fastcc i32 @path_excluded(ptr noundef nonnull %0, ptr noundef %12)
  %.not29 = icmp eq i32 %13, 0
  br i1 %.not29, label %._crit_edge, label %24

._crit_edge:                                      ; preds = %11
  %.pre = load i32, ptr %8, align 8, !tbaa !48
  br label %14

14:                                               ; preds = %._crit_edge, %7
  %15 = phi i32 [ %.pre, %._crit_edge ], [ %9, %7 ]
  %16 = and i32 %15, 2
  %.not30 = icmp eq i32 %16, 0
  br i1 %.not30, label %19, label %17

17:                                               ; preds = %14
  %18 = tail call fastcc i32 @time_excluded(ptr noundef nonnull %0, ptr noundef %1)
  %.not31 = icmp eq i32 %18, 0
  br i1 %.not31, label %._crit_edge33, label %24

._crit_edge33:                                    ; preds = %17
  %.pre34 = load i32, ptr %8, align 8, !tbaa !48
  br label %19

19:                                               ; preds = %._crit_edge33, %14
  %20 = phi i32 [ %.pre34, %._crit_edge33 ], [ %15, %14 ]
  %21 = and i32 %20, 4
  %.not32 = icmp eq i32 %21, 0
  br i1 %.not32, label %24, label %22

22:                                               ; preds = %19
  %23 = tail call fastcc i32 @owner_excluded(ptr noundef nonnull %0, ptr noundef %1)
  br label %24

24:                                               ; preds = %19, %22, %17, %11, %2, %6
  %.1 = phi i32 [ -25, %6 ], [ -30, %2 ], [ %13, %11 ], [ 1, %17 ], [ %23, %22 ], [ 0, %19 ]
  ret i32 %.1
}